target datalayout = "e-m:e-p270:32:32-p271:32:32-p272:64:64-i64:64-i128:128-f80:128-n8:16:32:64-S128"
target triple = "x86_64-pc-linux-gnu"

%"class.std::__cxx11::basic_string" = type { %"struct.std::__cxx11::basic_string<char>::_Alloc_hider", i64, %union.anon }
%"struct.std::__cxx11::basic_string<char>::_Alloc_hider" = type { ptr }
%union.anon = type { i64, [8 x i8] }

; Function Attrs: mustprogress nounwind uwtable
define available_externally noundef ptr @_ZNKSt7__cxx1112basic_stringIcSt11char_traitsIcESaIcEE7_M_dataEv(ptr noundef nonnull align 8 dereferenceable(32) %0) #2 align 2 {
  %2 = alloca ptr, align 8
  store ptr %0, ptr %2, align 8, !tbaa !9
  %3 = load ptr, ptr %2, align 8
  %4 = getelementptr inbounds nuw %"class.std::__cxx11::basic_string", ptr %3, i32 0, i32 0
  %5 = getelementptr inbounds nuw %"struct.std::__cxx11::basic_string<char>::_Alloc_hider", ptr %4, i32 0, i32 0
  %6 = load ptr, ptr %5, align 8, !tbaa !406
  ret ptr %6
}

; Function Attrs: mustprogress nounwind uwtable
define available_externally noundef nonnull align 1 dereferenceable(1) ptr @_ZNKSt7__cxx1112basic_stringIcSt11char_traitsIcESaIcEEixEm(ptr noundef nonnull align 8 dereferenceable(32) %0, i64 noundef %1) #2 align 2 {
  %3 = alloca ptr, align 8
  %4 = alloca i64, align 8
  store ptr %0, ptr %3, align 8, !tbaa !9
  store i64 %1, ptr %4, align 8, !tbaa !16
  %5 = load ptr, ptr %3, align 8
  br label %6

6:                                                ; preds = %2
  br label %7

7:                                                ; preds = %6
  br label %8

8:                                                ; preds = %7
  %9 = call noundef ptr @_ZNKSt7__cxx1112basic_stringIcSt11char_traitsIcESaIcEE7_M_dataEv(ptr noundef nonnull align 8 dereferenceable(32) %5)
  %10 = load i64, ptr %4, align 8, !tbaa !16
  %11 = getelementptr inbounds nuw i8, ptr %9, i64 %10
  ret ptr %11
}

; Function Attrs: mustprogress nounwind uwtable
define available_externally noundef i64 @_ZNKSt7__cxx1112basic_stringIcSt11char_traitsIcESaIcEE4sizeEv(ptr noundef nonnull align 8 dereferenceable(32) %0) #2 align 2 {
  %2 = alloca ptr, align 8
  store ptr %0, ptr %2, align 8, !tbaa !9
  %3 = load ptr, ptr %2, align 8
  %4 = getelementptr inbounds nuw %"class.std::__cxx11::basic_string", ptr %3, i32 0, i32 1
  %5 = load i64, ptr %4, align 8, !tbaa !300
  ret i64 %5
}

; Function Attrs: mustprogress nounwind uwtable
define noundef zeroext i1 @_ZN7rocksdb20RocksDBOptionsParser9IsSectionERKNSt7__cxx1112basic_stringIcSt11char_traitsIcESaIcEEE(ptr noundef nonnull align 8 dereferenceable(868) %0, ptr noundef nonnull align 8 dereferenceable(32) %1) #2 align 2 {
  %3 = alloca i1, align 1
  %4 = alloca ptr, align 8
  %5 = alloca ptr, align 8
  store ptr %0, ptr %4, align 8, !tbaa !275
  store ptr %1, ptr %5, align 8, !tbaa !9
  %6 = load ptr, ptr %5, align 8, !tbaa !9
  %7 = call noundef i64 @_ZNKSt7__cxx1112basic_stringIcSt11char_traitsIcESaIcEE4sizeEv(ptr noundef nonnull align 8 dereferenceable(32) %6) #4
  %8 = icmp ult i64 %7, 2
  br i1 %8, label %9, label %10

9:                                                ; preds = %2
  store i1 false, ptr %3, align 1
  br label %27

10:                                               ; preds = %2
  %11 = load ptr, ptr %5, align 8, !tbaa !9
  %12 = call noundef nonnull align 1 dereferenceable(1) ptr @_ZNKSt7__cxx1112basic_stringIcSt11char_traitsIcESaIcEEixEm(ptr noundef nonnull align 8 dereferenceable(32) %11, i64 noundef 0) #4
  %13 = load i8, ptr %12, align 1, !tbaa !258
  %14 = sext i8 %13 to i32
  %15 = icmp ne i32 %14, 91
  br i1 %15, label %25, label %16

16:                                               ; preds = %10
  %17 = load ptr, ptr %5, align 8, !tbaa !9
  %18 = load ptr, ptr %5, align 8, !tbaa !9
  %19 = call noundef i64 @_ZNKSt7__cxx1112basic_stringIcSt11char_traitsIcESaIcEE4sizeEv(ptr noundef nonnull align 8 dereferenceable(32) %18) #4
  %20 = sub i64 %19, 1
  %21 = call noundef nonnull align 1 dereferenceable(1) ptr @_ZNKSt7__cxx1112basic_stringIcSt11char_traitsIcESaIcEEixEm(ptr noundef nonnull align 8 dereferenceable(32) %17, i64 noundef %20) #4
  %22 = load i8, ptr %21, align 1, !tbaa !258
  %23 = sext i8 %22 to i32
  %24 = icmp ne i32 %23, 93
  br i1 %24, label %25, label %26

25:                                               ; preds = %16, %10
  store i1 false, ptr %3, align 1
  br label %27

26:                                               ; preds = %16
  store i1 true, ptr %3, align 1
  br label %27

27:                                               ; preds = %26, %25, %9
  %28 = load i1, ptr %3, align 1
  ret i1 %28
}