; Function Attrs: mustprogress nofree norecurse nosync nounwind willreturn memory(read, inaccessiblemem: none) uwtable
define noundef zeroext i1 @_ZN7rocksdb20RocksDBOptionsParser9IsSectionERKNSt7__cxx1112basic_stringIcSt11char_traitsIcESaIcEEE(ptr noundef nonnull readnone align 8 captures(none) dereferenceable(868) %0, ptr noundef nonnull readonly align 8 captures(none) dereferenceable(32) %1) local_unnamed_addr #10 align 2 {
  %3 = getelementptr inbounds nuw i8, ptr %1, i64 8
  %4 = load i64, ptr %3, align 8, !tbaa !12
  %5 = icmp ult i64 %4, 2
  br i1 %5, label %13, label %6

6:                                                ; preds = %2
  %7 = load ptr, ptr %1, align 8, !tbaa !4
  %8 = load i8, ptr %7, align 1, !tbaa !13
  %.not = icmp eq i8 %8, 91
  br i1 %.not, label %9, label %13

9:                                                ; preds = %6
  %10 = getelementptr i8, ptr %7, i64 %4
  %11 = getelementptr i8, ptr %10, i64 -1
  %12 = load i8, ptr %11, align 1, !tbaa !13
  %.not5 = icmp eq i8 %12, 93
  br label %13

13:                                               ; preds = %9, %6, %2
  %.0 = phi i1 [ false, %2 ], [ false, %6 ], [ %.not5, %9 ]
  ret i1 %.0
}